; Function Attrs: mustprogress uwtable
define void @_ZN5Gluco6Solver15removeSatisfiedERNS_3vecIjEE(ptr nocapture noundef nonnull align 8 dereferenceable(1216) %0, ptr nocapture noundef nonnull align 8 dereferenceable(16) %1) local_unnamed_addr #2 align 2 {
  %3 = getelementptr inbounds i8, ptr %1, i64 8
  %4 = load i32, ptr %3, align 8
  %5 = icmp sgt i32 %4, 0
  br i1 %5, label %.lr.ph, label %_ZN5Gluco3vecIjE6shrinkEi.exit

.lr.ph:                                           ; preds = %2
  %6 = getelementptr inbounds i8, ptr %0, i64 864
  %7 = getelementptr inbounds i8, ptr %0, i64 1148
  %8 = getelementptr inbounds i8, ptr %0, i64 632
  br label %9

9:                                                ; preds = %.lr.ph, %54
  %indvars.iv = phi i64 [ 0, %.lr.ph ], [ %indvars.iv.next, %54 ]
  %.01522 = phi i32 [ 0, %.lr.ph ], [ %.1, %54 ]
  %10 = load ptr, ptr %1, align 8
  %11 = getelementptr inbounds i32, ptr %10, i64 %indvars.iv
  %12 = load i32, ptr %11, align 4
  %13 = load ptr, ptr %6, align 8
  %14 = zext i32 %12 to i64
  %15 = getelementptr inbounds i32, ptr %13, i64 %14
  %16 = load i32, ptr %7, align 4
  %.not.i = icmp eq i32 %16, 0
  %17 = getelementptr inbounds i8, ptr %15, i64 12
  br i1 %.not.i, label %.preheader.i, label %24

.preheader.i:                                     ; preds = %9
  %18 = load i96, ptr %15, align 4
  %19 = lshr i96 %18, 32
  %20 = trunc i96 %19 to i32
  %21 = icmp sgt i32 %20, 0
  br i1 %21, label %.lr.ph.i, label %_ZNK5Gluco6Solver9satisfiedERKNS_6ClauseE.exit.thread19

.lr.ph.i:                                         ; preds = %.preheader.i
  %22 = load ptr, ptr %8, align 8
  %23 = trunc i96 %19 to i64
  %wide.trip.count.i = and i64 %23, 2147483647
  br label %34

24:                                               ; preds = %9
  %.sroa.0.0.copyload.i.i = load i32, ptr %17, align 4
  %25 = ashr i32 %.sroa.0.0.copyload.i.i, 1
  %26 = load ptr, ptr %8, align 8
  %27 = sext i32 %25 to i64
  %28 = getelementptr inbounds %"class.Gluco::lbool", ptr %26, i64 %27
  %29 = load i8, ptr %28, align 1
  %30 = trunc i32 %.sroa.0.0.copyload.i.i to i8
  %31 = and i8 %30, 1
  %32 = icmp eq i8 %29, %31
  br i1 %32, label %_ZNK5Gluco6Solver9satisfiedERKNS_6ClauseE.exit.thread, label %_ZNK5Gluco6Solver9satisfiedERKNS_6ClauseE.exit

33:                                               ; preds = %34
  %indvars.iv.next.i = add nuw nsw i64 %indvars.iv.i, 1
  %exitcond.not.i = icmp eq i64 %indvars.iv.next.i, %wide.trip.count.i
  br i1 %exitcond.not.i, label %_ZNK5Gluco6Solver9satisfiedERKNS_6ClauseE.exit.thread19, label %34, !llvm.loop !24

34:                                               ; preds = %33, %.lr.ph.i
  %indvars.iv.i = phi i64 [ 0, %.lr.ph.i ], [ %indvars.iv.next.i, %33 ]
  %35 = getelementptr inbounds [0 x %union.anon], ptr %17, i64 0, i64 %indvars.iv.i
  %.sroa.0.0.copyload.i12.i = load i32, ptr %35, align 4
  %36 = ashr i32 %.sroa.0.0.copyload.i12.i, 1
  %37 = sext i32 %36 to i64
  %38 = getelementptr inbounds %"class.Gluco::lbool", ptr %22, i64 %37
  %39 = load i8, ptr %38, align 1
  %40 = trunc i32 %.sroa.0.0.copyload.i12.i to i8
  %41 = and i8 %40, 1
  %42 = icmp eq i8 %39, %41
  br i1 %42, label %_ZNK5Gluco6Solver9satisfiedERKNS_6ClauseE.exit.thread, label %33

_ZNK5Gluco6Solver9satisfiedERKNS_6ClauseE.exit:   ; preds = %24
  %43 = getelementptr inbounds i8, ptr %15, i64 16
  %.sroa.0.0.copyload.i11.i = load i32, ptr %43, align 4
  %44 = ashr i32 %.sroa.0.0.copyload.i11.i, 1
  %45 = sext i32 %44 to i64
  %46 = getelementptr inbounds %"class.Gluco::lbool", ptr %26, i64 %45
  %47 = load i8, ptr %46, align 1
  %48 = trunc i32 %.sroa.0.0.copyload.i11.i to i8
  %49 = and i8 %48, 1
  %50 = icmp eq i8 %47, %49
  br i1 %50, label %_ZNK5Gluco6Solver9satisfiedERKNS_6ClauseE.exit.thread, label %_ZNK5Gluco6Solver9satisfiedERKNS_6ClauseE.exit.thread19

_ZNK5Gluco6Solver9satisfiedERKNS_6ClauseE.exit.thread: ; preds = %34, %24, %_ZNK5Gluco6Solver9satisfiedERKNS_6ClauseE.exit
  tail call void @_ZN5Gluco6Solver12removeClauseEj(ptr noundef nonnull align 8 dereferenceable(1216) %0, i32 noundef %12)
  br label %54

_ZNK5Gluco6Solver9satisfiedERKNS_6ClauseE.exit.thread19: ; preds = %33, %.preheader.i, %_ZNK5Gluco6Solver9satisfiedERKNS_6ClauseE.exit
  %51 = add nsw i32 %.01522, 1
  %52 = sext i32 %.01522 to i64
  %53 = getelementptr inbounds i32, ptr %10, i64 %52
  store i32 %12, ptr %53, align 4
  br label %54

54:                                               ; preds = %_ZNK5Gluco6Solver9satisfiedERKNS_6ClauseE.exit.thread, %_ZNK5Gluco6Solver9satisfiedERKNS_6ClauseE.exit.thread19
  %.1 = phi i32 [ %.01522, %_ZNK5Gluco6Solver9satisfiedERKNS_6ClauseE.exit.thread ], [ %51, %_ZNK5Gluco6Solver9satisfiedERKNS_6ClauseE.exit.thread19 ]
  %indvars.iv.next = add nuw nsw i64 %indvars.iv, 1
  %55 = load i32, ptr %3, align 8
  %56 = sext i32 %55 to i64
  %57 = icmp slt i64 %indvars.iv.next, %56
  br i1 %57, label %9, label %._crit_edge, !llvm.loop !58

._crit_edge:                                      ; preds = %54
  %58 = trunc i64 %indvars.iv.next to i32
  %59 = sub nsw i32 %58, %.1
  %60 = icmp sgt i32 %59, 0
  br i1 %60, label %.lr.ph.i16, label %_ZN5Gluco3vecIjE6shrinkEi.exit

.lr.ph.i16:                                       ; preds = %._crit_edge
  %61 = sub i32 %55, %59
  store i32 %61, ptr %3, align 8
  br label %_ZN5Gluco3vecIjE6shrinkEi.exit

_ZN5Gluco3vecIjE6shrinkEi.exit:                   ; preds = %2, %._crit_edge, %.lr.ph.i16
  ret void
}